(dp1
S'area_id'
p2
(dp3
S'length'
p4
I512
sS'unique'
p5
I00
sS'sortable'
p6
I9
sS'sql'
p7
S'INT  , INDEX area_id__idx (area_id), FOREIGN KEY (area_id) REFERENCES areas (id) ON DELETE CASCADE'
p8
sS'notnull'
p9
I00
sS'type'
p10
S'reference areas'
p11
ssS'modified_by'
p12
(dp13
g4
I512
sg5
I00
sg6
I14
sg7
S'INT  , INDEX modified_by__idx (modified_by), FOREIGN KEY (modified_by) REFERENCES auth_user (id) ON DELETE CASCADE'
p14
sg9
I00
sg10
S'reference auth_user'
p15
ssS'apellido'
p16
(dp17
g4
I512
sg5
I00
sg6
I2
sg7
S'VARCHAR(512)'
p18
sg9
I00
sg10
S'string'
p19
ssS'nombres'
p20
(dp21
g4
I512
sg5
I00
sg6
I3
sg7
S'VARCHAR(512)'
p22
sg9
I00
sg10
g19
ssS'dni'
p23
(dp24
g4
I512
sg5
I00
sg6
I5
sg7
S'VARCHAR(512)'
p25
sg9
I00
sg10
g19
ssS'created_by'
p26
(dp27
g4
I512
sg5
I00
sg6
I12
sg7
S'INT  , INDEX created_by__idx (created_by), FOREIGN KEY (created_by) REFERENCES auth_user (id) ON DELETE CASCADE'
p28
sg9
I00
sg10
g15
ssS'is_active'
p29
(dp30
g4
I512
sg5
I00
sg6
I10
sg7
S'CHAR(1)'
p31
sg9
I00
sg10
S'boolean'
p32
ssS'created_on'
p33
(dp34
g4
I512
sg5
I00
sg6
I11
sg7
S'DATETIME'
p35
sg9
I00
sg10
S'datetime'
p36
ssS'tel_coorporativo'
p37
(dp38
g4
I512
sg5
I00
sg6
I6
sg7
S'VARCHAR(512)'
p39
sg9
I00
sg10
g19
ssS'modified_on'
p40
(dp41
g4
I512
sg5
I00
sg6
I13
sg7
S'DATETIME'
p42
sg9
I00
sg10
g36
ssS'tel_celular'
p43
(dp44
g4
I512
sg5
I00
sg6
I7
sg7
S'VARCHAR(512)'
p45
sg9
I00
sg10
g19
ssS'tel_fijo'
p46
(dp47
g4
I512
sg5
I00
sg6
I8
sg7
S'VARCHAR(512)'
p48
sg9
I00
sg10
g19
ssS'id'
p49
(dp50
g4
I512
sg5
I00
sg6
I1
sg7
S'INT AUTO_INCREMENT NOT NULL'
p51
sg9
I00
sg10
g49
ssS'domicilio'
p52
(dp53
g4
I512
sg5
I00
sg6
I4
sg7
S'VARCHAR(512)'
p54
sg9
I00
sg10
g19
ss.