(dp1
S'output'
p2
S'<class \'_mysql_exceptions.ProgrammingError\'> (1146, "Table \'pi.auth_user\' doesn\'t exist")'
p3
sS'layer'
p4
S'/home/alvaro/Descargas/web2py (2)/applications/pi/models/db_99_insert.py'
p5
sS'code'
p6
S"### First Execution After of Install.\nif install:\n    # add User Root\n    if db(db.auth_user).isempty():\n        \n        items = [\n            {\n                'id' : 1,\n                'first_name' : 'root',\n                'last_name' : 'root',\n                'username' : 'root',\n                'password' : 'pbkdf2(1000,20,sha512)$9a059bd4c356d5b5$b61230375be4ae67527e79201730f15d6b179efc'\n            },\n            {\n                'id' : 2,\n                'first_name' : 'usuario',\n                'last_name' : 'usuario',\n                'username' : 'usuario',\n                'password' : 'pbkdf2(1000,20,sha512)$8039f601d161c607$29b6accea95adaf89f0106eeaceaa6a52b349849'\n            }\n        ]\n        db.auth_user.bulk_insert(items)\n\n    # add groups\n    if db(db.auth_group).isempty():\n        items = [\n            {'id': 1, 'role': 'admin', 'description': 'Administaci\xc3\xb3n'},\n            {'id': 2, 'role': 'user', 'description': 'usuarios'}\n        ]\n        db.auth_group.bulk_insert(items)\n        db.auth_membership(user_id=1, group_id=1)\n        db.auth_membership(user_id=2, group_id=2)\n\n    # add marcas\n    if db(db.tab_marcas).isempty():\n        items = [\n        {\n        'id' : 1,\n        'nombre' : 'SAMSUNG',\n        'placa_madre' : 'F',\n        'microprocesador' : 'F',\n        'disco_rigido' : 'T',\n        'memoria_ram' : 'T',\n        'monitor' : 'T',\n        'ups_estabilizador' : 'F',\n        'placa_video' : 'F',\n        'impresora' : 'T'\n        },\n        {\n        'id' : 2,\n        'nombre' : 'MAXTOR',\n        'placa_madre' : 'F',\n        'microprocesador' : 'F',\n        'disco_rigido' : 'T',\n        'memoria_ram' : 'F',\n        'monitor' : 'F',\n        'ups_estabilizador' : 'F',\n        'placa_video' : 'F',\n        'impresora' : 'F'\n        },\n        {\n        'id' : 3,\n        'nombre' : 'SEAGATE',\n        'placa_madre' : 'F',\n        'microprocesador' : 'F',\n        'disco_rigido' : 'T',\n        'memoria_ram' : 'F',\n        'monitor' : 'F',\n        'ups_estabilizador' : 'F',\n        'placa_video' : 'F',\n        'impresora' : 'F'\n        },\n        {\n        'id' : 4,\n        'nombre' : 'WESTER DIGITAL',\n        'placa_madre' : 'F',\n        'microprocesador' : 'F',\n        'disco_rigido' : 'T',\n        'memoria_ram' : 'F',\n        'monitor' : 'F',\n        'ups_estabilizador' : 'F',\n        'placa_video' : 'F',\n        'impresora' : 'F'\n        },\n        {\n        'id' : 5,\n        'nombre' : 'LG',\n        'placa_madre' : 'F',\n        'microprocesador' : 'F',\n        'disco_rigido' : 'F',\n        'memoria_ram' : 'F',\n        'monitor' : 'T',\n        'ups_estabilizador' : 'F',\n        'placa_video' : 'F',\n        'impresora' : 'F'\n        },\n        {\n        'id' : 6,\n        'nombre' : 'KINGSTON',\n        'placa_madre' : 'F',\n        'microprocesador' : 'F',\n        'disco_rigido' : 'F',\n        'memoria_ram' : 'T',\n        'monitor' : 'F',\n        'ups_estabilizador' : 'F',\n        'placa_video' : 'F',\n        'impresora' : 'F'\n        },\n        {\n        'id' : 7,\n        'nombre' : 'NVIDIA',\n        'placa_madre' : 'F',\n        'microprocesador' : 'F',\n        'disco_rigido' : 'F',\n        'memoria_ram' : 'F',\n        'monitor' : 'F',\n        'ups_estabilizador' : 'F',\n        'placa_video' : 'T',\n        'impresora' : 'F'\n        },\n        {\n        'id' : 8,\n        'nombre' : 'GIGABYTE',\n        'placa_madre' : 'T',\n        'microprocesador' : 'F',\n        'disco_rigido' : 'F',\n        'memoria_ram' : 'F',\n        'monitor' : 'F',\n        'ups_estabilizador' : 'F',\n        'placa_video' : 'F',\n        'impresora' : 'F'\n        },\n        {\n        'id' : 9,\n        'nombre' : 'ASROCK',\n        'placa_madre' : 'T',\n        'microprocesador' : 'F',\n        'disco_rigido' : 'F',\n        'memoria_ram' : 'F',\n        'monitor' : 'F',\n        'ups_estabilizador' : 'F',\n        'placa_video' : 'F',\n        'impresora' : 'F'\n        },\n        {\n        'id' : 10,\n        'nombre' : 'INTEL',\n        'placa_madre' : 'T',\n        'microprocesador' : 'T',\n        'disco_rigido' : 'F',\n        'memoria_ram' : 'F',\n        'monitor' : 'F',\n        'ups_estabilizador' : 'F',\n        'placa_video' : 'F',\n        'impresora' : 'F'\n        },\n        {\n        'id' : 11,\n        'nombre' : 'AMD',\n        'placa_madre' : 'F',\n        'microprocesador' : 'T',\n        'disco_rigido' : 'F',\n        'memoria_ram' : 'F',\n        'monitor' : 'F',\n        'ups_estabilizador' : 'F',\n        'placa_video' : 'T',\n        'impresora' : 'F'\n        },\n        {\n        'id' : 12,\n        'nombre' : 'HP',\n        'placa_madre' : 'F',\n        'microprocesador' : 'F',\n        'disco_rigido' : 'F',\n        'memoria_ram' : 'T',\n        'monitor' : 'T',\n        'ups_estabilizador' : 'F',\n        'placa_video' : 'F',\n        'impresora' : 'T'\n        },\n        {\n        'id' : 13,\n        'nombre' : 'KOZUMI',\n        'placa_madre' : 'F',\n        'microprocesador' : 'F',\n        'disco_rigido' : 'F',\n        'memoria_ram' : 'F',\n        'monitor' : 'F',\n        'ups_estabilizador' : 'T',\n        'placa_video' : 'F',\n        'impresora' : 'F'\n        },\n        {\n        'id' : 14,\n        'nombre' : 'TRV',\n        'placa_madre' : 'F',\n        'microprocesador' : 'F',\n        'disco_rigido' : 'F',\n        'memoria_ram' : 'F',\n        'monitor' : 'F',\n        'ups_estabilizador' : 'T',\n        'placa_video' : 'F',\n        'impresora' : 'F'\n        },\n        {\n        'id' : 15,\n        'nombre' : 'ATOMLUX',\n        'placa_madre' : 'F',\n        'microprocesador' : 'F',\n        'disco_rigido' : 'F',\n        'memoria_ram' : 'F',\n        'monitor' : 'F',\n        'ups_estabilizador' : 'T',\n        'placa_video' : 'F',\n        'impresora' : 'F'\n        },\n        {\n        'id' : 16,\n        'nombre' : 'ASUS',\n        'placa_madre' : 'T',\n        'microprocesador' : 'F',\n        'disco_rigido' : 'F',\n        'memoria_ram' : 'F',\n        'monitor' : 'T',\n        'ups_estabilizador' : 'F',\n        'placa_video' : 'F',\n        'impresora' : 'F'\n        },\n        {\n        'id' : 17,\n        'nombre' : 'ACER',\n        'placa_madre' : 'F',\n        'microprocesador' : 'F',\n        'disco_rigido' : 'F',\n        'memoria_ram' : 'F',\n        'monitor' : 'T',\n        'ups_estabilizador' : 'F',\n        'placa_video' : 'F',\n        'impresora' : 'F'\n        },\n        {\n        'id' : 18,\n        'nombre' : 'BANGHO',\n        'placa_madre' : 'F',\n        'microprocesador' : 'F',\n        'disco_rigido' : 'F',\n        'memoria_ram' : 'F',\n        'monitor' : 'T',\n        'ups_estabilizador' : 'F',\n        'placa_video' : 'F',\n        'impresora' : 'F'\n        },\n        {\n        'id' : 19,\n        'nombre' : 'EPSON',\n        'placa_madre' : 'F',\n        'microprocesador' : 'F',\n        'disco_rigido' : 'F',\n        'memoria_ram' : 'F',\n        'monitor' : 'F',\n        'ups_estabilizador' : 'F',\n        'placa_video' : 'F',\n        'impresora' : 'T'\n        },\n        {\n        'id' : 20,\n        'nombre' : 'CANON',\n        'placa_madre' : 'F',\n        'microprocesador' : 'F',\n        'disco_rigido' : 'F',\n        'memoria_ram' : 'F',\n        'monitor' : 'F',\n        'ups_estabilizador' : 'F',\n        'placa_video' : 'F',\n        'impresora' : 'T'\n        }\n        ]\n        db.tab_marcas.bulk_insert(items)\n\n    # add motherboard\n    if db(db.tab_placa_madre).isempty():\n        items = [\n        {\n        'id' : 1,\n        'marca_id' : 16,\n        'modelo' : 'M5A78LM'\n        },\n        {\n        'id' : 2,\n        'marca_id' : 16,\n        'modelo' : 'P5SD2-VM'\n        },\n        {\n        'id' : 4,\n        'marca_id' : 16,\n        'modelo' : 'P5VDC-X'\n        },\n        {\n        'id' : 7,\n        'marca_id' : 8,\n        'modelo' : 'b4567'\n        }\n        ]\n\n        db.tab_placa_madre.bulk_insert(items)\n\n    # add microprocesadoes\n    if db(db.tab_microprocesadores).isempty():\n        items = [\n        {\n        'id' : 1,\n        'marca_id' : 10,\n        'modelo' : 'Core i3 3120M',\n        'frecuencia_trabajo' : '2.5'\n        },\n        {\n        'id' : 2,\n        'marca_id' : 10,\n        'modelo' : 'Core i7 4770K',\n        'frecuencia_trabajo' : '3.50'\n        },\n        {\n        'id' : 3,\n        'marca_id' : 10,\n        'modelo' : 'Pentium Dual-Core E5300',\n        'frecuencia_trabajo' : '2.6'\n        },\n        {\n        'id' : 4,\n        'marca_id' : 10,\n        'modelo' : 'Core i5-4440',\n        'frecuencia_trabajo' : '3.10'\n        },\n        {\n        'id' : 5,\n        'marca_id' : 10,\n        'modelo' : 'Core i5-2310',\n        'frecuencia_trabajo' : '2.9'\n        },\n        {\n        'id' : 6,\n        'marca_id' : 10,\n        'modelo' : 'Core 2 Duo E6550',\n        'frecuencia_trabajo' : '2.33'\n        }\n        ]\n\n        db.tab_microprocesadores.bulk_insert(items)\n\n    # add print\n    if db(db.tab_impresoras).isempty():\n\n        items = [\n        {\n        'id' : 1,\n        'marca_id' : 12,\n        'modelo' : 'LASERJET P1102W',\n        'observaciones' : ''\n        },\n        {\n        'id' : 2,\n        'marca_id' : 12,\n        'modelo' : 'PSC 1210',\n        'observaciones' : ''\n        },\n        {\n        'id' : 3,\n        'marca_id' : 12,\n        'modelo' : 'DESKJET F380',\n        'observaciones' : ''\n        },\n        {\n        'id' : 4,\n        'marca_id' : 12,\n        'modelo' : 'LASERJET P1006',\n        'observaciones' : ''\n        },\n        {\n        'id' : 5,\n        'marca_id' : 1,\n        'modelo' : 'ML2165w',\n        'observaciones' : ''\n        },\n        {\n        'id' : 6,\n        'marca_id' : 12,\n        'modelo' : 'PHOTOSMART D110 ALL IN ONE',\n        'observaciones' : ''\n        },\n        {\n        'id' : 7,\n        'marca_id' : 12,\n        'modelo' : 'Deskjet F4100',\n        'observaciones' : ''\n        },\n        {\n        'id' : 8,\n        'marca_id' : 12,\n        'modelo' : 'Deskjet F2100',\n        'observaciones' : ''\n        },\n        {\n        'id' : 9,\n        'marca_id' : 12,\n        'modelo' : 'OfficeJet 7610 e-All In One',\n        'observaciones' : ''\n        },\n        {\n        'id' : 10,\n        'marca_id' : 20,\n        'modelo' : 'STYLUS TX235W',\n        'observaciones' : ''\n        },\n        {\n        'id' : 11,\n        'marca_id' : 12,\n        'modelo' : 'OfficeJet 7500A',\n        'observaciones' : ''\n        },\n        {\n        'id' : 12,\n        'marca_id' : 12,\n        'modelo' : 'Deskjet F4620',\n        'observaciones' : ''\n        },\n        {\n        'id' : 13,\n        'marca_id' : 20,\n        'modelo' : 'STYLUS TX105',\n        'observaciones' : ''\n        },\n        {\n        'id' : 14,\n        'marca_id' : 20,\n        'modelo' : 'STYLUS OFFICE TX320F',\n        'observaciones' : ''\n        },\n        {\n        'id' : 15,\n        'marca_id' : 12,\n        'modelo' : 'OfficeJet Pro 8100',\n        'observaciones' : ''\n        },\n        {\n        'id' : 16,\n        'marca_id' : 12,\n        'modelo' : 'PHOTOSMART C4400',\n        'observaciones' : ''\n        },\n        {\n        'id' : 17,\n        'marca_id' : 12,\n        'modelo' : 'Color LaserJet CP2020',\n        'observaciones' : ''\n        }\n        ]\n        db.tab_impresoras.bulk_insert(items)\n\n    # add monitores\n    if db(db.tab_monitores).isempty():\n        items = []\n        db.tab_monitores.bulk_insert(items)\n\n    # add ups | estabilizadores\n    if db(db.tab_impresoras).isempty():\n        items = [\n        {\n        'marca_id' : 14,\n        'modelo' : 'NEO 500',\n        'tipo' : 'UPS',\n        'potencia' : '500'\n        }\n        ]\n        db.tab_impresoras.bulk_insert(items)"
p7
sS'snapshot'
p8
(dp9
sS'traceback'
p10
S'Traceback (most recent call last):\n  File "/home/alvaro/Descargas/web2py (2)/gluon/restricted.py", line 227, in restricted\n    exec ccode in environment\n  File "/home/alvaro/Descargas/web2py (2)/applications/pi/models/db_99_insert.py", line 4, in <module>\n    if db(db.auth_user).isempty():\n  File "/home/alvaro/Descargas/web2py (2)/gluon/packages/dal/pydal/objects.py", line 1993, in isempty\n    return not self.select(limitby=(0,1), orderby_on_limitby=False)\n  File "/home/alvaro/Descargas/web2py (2)/gluon/packages/dal/pydal/objects.py", line 2025, in select\n    return adapter.select(self.query,fields,attributes)\n  File "/home/alvaro/Descargas/web2py (2)/gluon/packages/dal/pydal/adapters/base.py", line 1293, in select\n    return self._select_aux(sql,fields,attributes)\n  File "/home/alvaro/Descargas/web2py (2)/gluon/packages/dal/pydal/adapters/base.py", line 1250, in _select_aux\n    self.execute(sql)\n  File "/home/alvaro/Descargas/web2py (2)/gluon/packages/dal/pydal/adapters/base.py", line 1385, in execute\n    return self.log_execute(*a, **b)\n  File "/home/alvaro/Descargas/web2py (2)/gluon/packages/dal/pydal/adapters/base.py", line 1379, in log_execute\n    ret = self.get_cursor().execute(command, *a[1:], **b)\n  File "/usr/lib/python2.7/dist-packages/MySQLdb/cursors.py", line 174, in execute\n    self.errorhandler(self, exc, value)\n  File "/usr/lib/python2.7/dist-packages/MySQLdb/connections.py", line 36, in defaulterrorhandler\n    raise errorclass, errorvalue\nProgrammingError: (1146, "Table \'pi.auth_user\' doesn\'t exist")\n'
p11
s.